; ModuleID = '35/746.c'
source_filename = "35/746.c"
target datalayout = "e-m:e-p270:32:32-p271:32:32-p272:64:64-i64:64-f80:128-n8:16:32:64-S128"
target triple = "x86_64-pc-linux-gnu"

@.str = private unnamed_addr constant [6 x i8] c"%d,%d\00", align 1
@.str.1 = private unnamed_addr constant [3 x i8] c"%d\00", align 1
@.str.2 = private unnamed_addr constant [7 x i8] c"%d+%d\0A\00", align 1
@.str.3 = private unnamed_addr constant [3 x i8] c"No\00", align 1

; Function Attrs: noinline nounwind uwtable
define dso_local i32 @main() #0 {
  %1 = alloca i32, align 4
  %2 = alloca i32, align 4
  %3 = alloca i32, align 4
  %4 = alloca i32, align 4
  %5 = alloca i32, align 4
  %6 = alloca i32, align 4
  %7 = alloca i32, align 4
  %8 = alloca i32, align 4
  %9 = alloca i32, align 4
  %10 = alloca i32, align 4
  %11 = alloca i32, align 4
  %12 = alloca [8 x [8 x i32]], align 16
  store i32 0, i32* %1, align 4
  store i32 0, i32* %5, align 4
  store i32 0, i32* %8, align 4
  store i32 0, i32* %9, align 4
  %13 = call i32 (i8*, ...) @__isoc99_scanf(i8* getelementptr inbounds ([6 x i8], [6 x i8]* @.str, i64 0, i64 0), i32* %10, i32* %11)
  store i32 0, i32* %2, align 4
  br label %14

14:                                               ; preds = %35, %0
  %15 = load i32, i32* %2, align 4
  %16 = load i32, i32* %10, align 4
  %17 = icmp slt i32 %15, %16
  br i1 %17, label %18, label %38

18:                                               ; preds = %14
  store i32 0, i32* %3, align 4
  br label %19

19:                                               ; preds = %31, %18
  %20 = load i32, i32* %3, align 4
  %21 = load i32, i32* %11, align 4
  %22 = icmp slt i32 %20, %21
  br i1 %22, label %23, label %34

23:                                               ; preds = %19
  %24 = load i32, i32* %2, align 4
  %25 = sext i32 %24 to i64
  %26 = getelementptr inbounds [8 x [8 x i32]], [8 x [8 x i32]]* %12, i64 0, i64 %25
  %27 = load i32, i32* %3, align 4
  %28 = sext i32 %27 to i64
  %29 = getelementptr inbounds [8 x i32], [8 x i32]* %26, i64 0, i64 %28
  %30 = call i32 (i8*, ...) @__isoc99_scanf(i8* getelementptr inbounds ([3 x i8], [3 x i8]* @.str.1, i64 0, i64 0), i32* %29)
  br label %31

31:                                               ; preds = %23
  %32 = load i32, i32* %3, align 4
  %33 = add nsw i32 %32, 1
  store i32 %33, i32* %3, align 4
  br label %19

34:                                               ; preds = %19
  br label %35

35:                                               ; preds = %34
  %36 = load i32, i32* %2, align 4
  %37 = add nsw i32 %36, 1
  store i32 %37, i32* %2, align 4
  br label %14

38:                                               ; preds = %14
  store i32 0, i32* %2, align 4
  br label %39

39:                                               ; preds = %109, %38
  %40 = load i32, i32* %2, align 4
  %41 = load i32, i32* %10, align 4
  %42 = icmp slt i32 %40, %41
  br i1 %42, label %43, label %112

43:                                               ; preds = %39
  store i32 0, i32* %3, align 4
  br label %44

44:                                               ; preds = %69, %43
  %45 = load i32, i32* %3, align 4
  %46 = load i32, i32* %11, align 4
  %47 = icmp slt i32 %45, %46
  br i1 %47, label %48, label %72

48:                                               ; preds = %44
  %49 = load i32, i32* %2, align 4
  %50 = sext i32 %49 to i64
  %51 = getelementptr inbounds [8 x [8 x i32]], [8 x [8 x i32]]* %12, i64 0, i64 %50
  %52 = load i32, i32* %3, align 4
  %53 = sext i32 %52 to i64
  %54 = getelementptr inbounds [8 x i32], [8 x i32]* %51, i64 0, i64 %53
  %55 = load i32, i32* %54, align 4
  %56 = load i32, i32* %5, align 4
  %57 = icmp sge i32 %55, %56
  br i1 %57, label %58, label %68

58:                                               ; preds = %48
  %59 = load i32, i32* %2, align 4
  %60 = sext i32 %59 to i64
  %61 = getelementptr inbounds [8 x [8 x i32]], [8 x [8 x i32]]* %12, i64 0, i64 %60
  %62 = load i32, i32* %3, align 4
  %63 = sext i32 %62 to i64
  %64 = getelementptr inbounds [8 x i32], [8 x i32]* %61, i64 0, i64 %63
  %65 = load i32, i32* %64, align 4
  store i32 %65, i32* %5, align 4
  %66 = load i32, i32* %2, align 4
  store i32 %66, i32* %6, align 4
  %67 = load i32, i32* %3, align 4
  store i32 %67, i32* %7, align 4
  br label %68

68:                                               ; preds = %58, %48
  br label %69

69:                                               ; preds = %68
  %70 = load i32, i32* %3, align 4
  %71 = add nsw i32 %70, 1
  store i32 %71, i32* %3, align 4
  br label %44

72:                                               ; preds = %44
  store i32 0, i32* %4, align 4
  br label %73

73:                                               ; preds = %95, %72
  %74 = load i32, i32* %4, align 4
  %75 = load i32, i32* %10, align 4
  %76 = icmp slt i32 %74, %75
  br i1 %76, label %77, label %98

77:                                               ; preds = %73
  %78 = load i32, i32* %6, align 4
  %79 = sext i32 %78 to i64
  %80 = getelementptr inbounds [8 x [8 x i32]], [8 x [8 x i32]]* %12, i64 0, i64 %79
  %81 = load i32, i32* %7, align 4
  %82 = sext i32 %81 to i64
  %83 = getelementptr inbounds [8 x i32], [8 x i32]* %80, i64 0, i64 %82
  %84 = load i32, i32* %83, align 4
  %85 = load i32, i32* %4, align 4
  %86 = sext i32 %85 to i64
  %87 = getelementptr inbounds [8 x [8 x i32]], [8 x [8 x i32]]* %12, i64 0, i64 %86
  %88 = load i32, i32* %7, align 4
  %89 = sext i32 %88 to i64
  %90 = getelementptr inbounds [8 x i32], [8 x i32]* %87, i64 0, i64 %89
  %91 = load i32, i32* %90, align 4
  %92 = icmp sgt i32 %84, %91
  br i1 %92, label %93, label %94

93:                                               ; preds = %77
  br label %98

94:                                               ; preds = %77
  br label %95

95:                                               ; preds = %94
  %96 = load i32, i32* %4, align 4
  %97 = add nsw i32 %96, 1
  store i32 %97, i32* %4, align 4
  br label %73

98:                                               ; preds = %93, %73
  %99 = load i32, i32* %4, align 4
  %100 = load i32, i32* %10, align 4
  %101 = icmp eq i32 %99, %100
  br i1 %101, label %102, label %108

102:                                              ; preds = %98
  %103 = load i32, i32* %6, align 4
  %104 = load i32, i32* %7, align 4
  %105 = call i32 (i8*, ...) @printf(i8* getelementptr inbounds ([7 x i8], [7 x i8]* @.str.2, i64 0, i64 0), i32 %103, i32 %104)
  %106 = load i32, i32* %9, align 4
  %107 = add nsw i32 %106, 1
  store i32 %107, i32* %9, align 4
  br label %108

108:                                              ; preds = %102, %98
  store i32 0, i32* %5, align 4
  store i32 0, i32* %7, align 4
  store i32 0, i32* %6, align 4
  store i32 0, i32* %8, align 4
  br label %109

109:                                              ; preds = %108
  %110 = load i32, i32* %2, align 4
  %111 = add nsw i32 %110, 1
  store i32 %111, i32* %2, align 4
  br label %39

112:                                              ; preds = %39
  %113 = load i32, i32* %9, align 4
  %114 = icmp eq i32 %113, 0
  br i1 %114, label %115, label %117

115:                                              ; preds = %112
  %116 = call i32 (i8*, ...) @printf(i8* getelementptr inbounds ([3 x i8], [3 x i8]* @.str.3, i64 0, i64 0))
  br label %117

117:                                              ; preds = %115, %112
  ret i32 0
}

declare dso_local i32 @__isoc99_scanf(i8*, ...) #1

declare dso_local i32 @printf(i8*, ...) #1


!llvm.module.flags = !{!0}
!llvm.ident = !{!1}

!0 = !{i32 1, !"wchar_size", i32 4}
!1 = !{!"clang version 10.0.0-4ubuntu1 "}
